
dziala.elf:     file format elf32-avr

Sections:
Idx Name          Size      VMA       LMA       File off  Algn
  0 .text         00000176  00000000  00000000  00000074  2**1
                  CONTENTS, ALLOC, LOAD, READONLY, CODE
  1 .bss          00000004  00800060  00800060  000001ea  2**0
                  ALLOC
  2 .debug_aranges 00000020  00000000  00000000  000001ea  2**0
                  CONTENTS, READONLY, DEBUGGING
  3 .debug_pubnames 00000079  00000000  00000000  0000020a  2**0
                  CONTENTS, READONLY, DEBUGGING
  4 .debug_info   000001de  00000000  00000000  00000283  2**0
                  CONTENTS, READONLY, DEBUGGING
  5 .debug_abbrev 00000141  00000000  00000000  00000461  2**0
                  CONTENTS, READONLY, DEBUGGING
  6 .debug_line   0000021a  00000000  00000000  000005a2  2**0
                  CONTENTS, READONLY, DEBUGGING
  7 .debug_frame  00000060  00000000  00000000  000007bc  2**2
                  CONTENTS, READONLY, DEBUGGING
  8 .debug_str    000000dd  00000000  00000000  0000081c  2**0
                  CONTENTS, READONLY, DEBUGGING
  9 .debug_loc    00000062  00000000  00000000  000008f9  2**0
                  CONTENTS, READONLY, DEBUGGING

Disassembly of section .text:

00000000 <__vectors>:
   0:	12 c0       	rjmp	.+36     	; 0x26 <__ctors_end>
   2:	21 c0       	rjmp	.+66     	; 0x46 <__bad_interrupt>
   4:	20 c0       	rjmp	.+64     	; 0x46 <__bad_interrupt>
   6:	2f c0       	rjmp	.+94     	; 0x66 <__vector_3>
   8:	1e c0       	rjmp	.+60     	; 0x46 <__bad_interrupt>
   a:	1d c0       	rjmp	.+58     	; 0x46 <__bad_interrupt>
   c:	1c c0       	rjmp	.+56     	; 0x46 <__bad_interrupt>
   e:	1b c0       	rjmp	.+54     	; 0x46 <__bad_interrupt>
  10:	1a c0       	rjmp	.+52     	; 0x46 <__bad_interrupt>
  12:	19 c0       	rjmp	.+50     	; 0x46 <__bad_interrupt>
  14:	18 c0       	rjmp	.+48     	; 0x46 <__bad_interrupt>
  16:	17 c0       	rjmp	.+46     	; 0x46 <__bad_interrupt>
  18:	16 c0       	rjmp	.+44     	; 0x46 <__bad_interrupt>
  1a:	15 c0       	rjmp	.+42     	; 0x46 <__bad_interrupt>
  1c:	14 c0       	rjmp	.+40     	; 0x46 <__bad_interrupt>
  1e:	13 c0       	rjmp	.+38     	; 0x46 <__bad_interrupt>
  20:	12 c0       	rjmp	.+36     	; 0x46 <__bad_interrupt>
  22:	11 c0       	rjmp	.+34     	; 0x46 <__bad_interrupt>
  24:	10 c0       	rjmp	.+32     	; 0x46 <__bad_interrupt>

00000026 <__ctors_end>:
  26:	11 24       	eor	r1, r1
  28:	1f be       	out	0x3f, r1	; 63
  2a:	cf e5       	ldi	r28, 0x5F	; 95
  2c:	d4 e0       	ldi	r29, 0x04	; 4
  2e:	de bf       	out	0x3e, r29	; 62
  30:	cd bf       	out	0x3d, r28	; 61

00000032 <__do_clear_bss>:
  32:	10 e0       	ldi	r17, 0x00	; 0
  34:	a0 e6       	ldi	r26, 0x60	; 96
  36:	b0 e0       	ldi	r27, 0x00	; 0
  38:	01 c0       	rjmp	.+2      	; 0x3c <.do_clear_bss_start>

0000003a <.do_clear_bss_loop>:
  3a:	1d 92       	st	X+, r1

0000003c <.do_clear_bss_start>:
  3c:	a4 36       	cpi	r26, 0x64	; 100
  3e:	b1 07       	cpc	r27, r17
  40:	e1 f7       	brne	.-8      	; 0x3a <.do_clear_bss_loop>
  42:	39 d0       	rcall	.+114    	; 0xb6 <main>
  44:	96 c0       	rjmp	.+300    	; 0x172 <_exit>

00000046 <__bad_interrupt>:
  46:	dc cf       	rjmp	.-72     	; 0x0 <__vectors>

00000048 <USART_Init>:
#include <util/delay.h>
#include <avr/interrupt.h>


void USART_Init( uint16_t baud){
	UBRRH = (uint16_t)(baud>>8);
  48:	90 bd       	out	0x20, r25	; 32
	UBRRL = (uint16_t)baud;
  4a:	89 b9       	out	0x09, r24	; 9
	UCSRB = (1<<RXEN)|(1<<TXEN);
  4c:	88 e1       	ldi	r24, 0x18	; 24
  4e:	8a b9       	out	0x0a, r24	; 10
	UCSRC = (1<<URSEL)|(3<<UCSZ0);
  50:	86 e8       	ldi	r24, 0x86	; 134
  52:	80 bd       	out	0x20, r24	; 32
}
  54:	08 95       	ret

00000056 <USART_Transmit>:

void USART_Transmit( char buflen) {
	while( !(UCSRA & (1<<UDRE)) );
  56:	5d 9b       	sbis	0x0b, 5	; 11
  58:	fe cf       	rjmp	.-4      	; 0x56 <USART_Transmit>
	UDR = buflen;
  5a:	8c b9       	out	0x0c, r24	; 12
}
  5c:	08 95       	ret

0000005e <USART_Receive>:
	
unsigned char USART_Receive( void ){
   while( !(UCSRA & (1<<RXC)) );
  5e:	5f 9b       	sbis	0x0b, 7	; 11
  60:	fe cf       	rjmp	.-4      	; 0x5e <USART_Receive>
   return UDR;
  62:	8c b1       	in	r24, 0x0c	; 12
}
  64:	08 95       	ret

00000066 <__vector_3>:

volatile uint8_t pwmR, pwmG, pwmB;

ISR( TIMER2_COMP_vect ) // cia³o procedury obs³ugi przerwania Compare Match Timera2
{
  66:	1f 92       	push	r1
  68:	0f 92       	push	r0
  6a:	0f b6       	in	r0, 0x3f	; 63
  6c:	0f 92       	push	r0
  6e:	11 24       	eor	r1, r1
  70:	8f 93       	push	r24
  72:	9f 93       	push	r25
	static uint8_t cnt; // definicja naszego licznika PWM

	// bezpoœrednie sterowanie wyjœciami kana³ów PWM
	if(cnt>=pwmR) PORTC |= (1<<PC0); else PORTC &= ~(1<<PC0);
  74:	90 91 60 00 	lds	r25, 0x0060
  78:	80 91 62 00 	lds	r24, 0x0062
  7c:	98 17       	cp	r25, r24
  7e:	10 f0       	brcs	.+4      	; 0x84 <__vector_3+0x1e>
  80:	a8 9a       	sbi	0x15, 0	; 21
  82:	01 c0       	rjmp	.+2      	; 0x86 <__vector_3+0x20>
  84:	a8 98       	cbi	0x15, 0	; 21
	if(cnt>=pwmG) PORTC |= (1<<PC1); else PORTC &= ~(1<<PC1);
  86:	80 91 63 00 	lds	r24, 0x0063
  8a:	98 17       	cp	r25, r24
  8c:	10 f0       	brcs	.+4      	; 0x92 <__vector_3+0x2c>
  8e:	a9 9a       	sbi	0x15, 1	; 21
  90:	01 c0       	rjmp	.+2      	; 0x94 <__vector_3+0x2e>
  92:	a9 98       	cbi	0x15, 1	; 21
	if(cnt>=pwmB) PORTC |= (1<<PC2); else PORTC &= ~(1<<PC2);
  94:	80 91 61 00 	lds	r24, 0x0061
  98:	98 17       	cp	r25, r24
  9a:	10 f0       	brcs	.+4      	; 0xa0 <__vector_3+0x3a>
  9c:	aa 9a       	sbi	0x15, 2	; 21
  9e:	01 c0       	rjmp	.+2      	; 0xa2 <__vector_3+0x3c>
  a0:	aa 98       	cbi	0x15, 2	; 21
	cnt++;	// zwiêkszanie licznika o 1
  a2:	9f 5f       	subi	r25, 0xFF	; 255
  a4:	90 93 60 00 	sts	0x0060, r25
}
  a8:	9f 91       	pop	r25
  aa:	8f 91       	pop	r24
  ac:	0f 90       	pop	r0
  ae:	0f be       	out	0x3f, r0	; 63
  b0:	0f 90       	pop	r0
  b2:	1f 90       	pop	r1
  b4:	18 95       	reti

000000b6 <main>:
#include <util/delay.h>
#include <avr/interrupt.h>


void USART_Init( uint16_t baud){
	UBRRH = (uint16_t)(baud>>8);
  b6:	10 bc       	out	0x20, r1	; 32
	UBRRL = (uint16_t)baud;
  b8:	83 e3       	ldi	r24, 0x33	; 51
  ba:	89 b9       	out	0x09, r24	; 9
	UCSRB = (1<<RXEN)|(1<<TXEN);
  bc:	88 e1       	ldi	r24, 0x18	; 24
  be:	8a b9       	out	0x0a, r24	; 10
	UCSRC = (1<<URSEL)|(3<<UCSZ0);
  c0:	86 e8       	ldi	r24, 0x86	; 134
  c2:	80 bd       	out	0x20, r24	; 32

	USART_Init(MYUBRR);
	unsigned char data; 

	//***** SPRZÊTOWY PWM - 1 KANA£ OC0 (PB2) *******
	DDRB |= (1<<PB2); // ustawienie koñcówki OC0 (PB2) sprzêtowy PWM jako WYJŒCIE
  c4:	ba 9a       	sbi	0x17, 2	; 23
	TCCR0 |= (1<<WGM10)|(1<<WGM12);		// tryb Fast PWM
  c6:	83 b7       	in	r24, 0x33	; 51
  c8:	89 60       	ori	r24, 0x09	; 9
  ca:	83 bf       	out	0x33, r24	; 51
	TCCR0 |= (1<<COM21);				// clear at TOP
  cc:	83 b7       	in	r24, 0x33	; 51
  ce:	80 62       	ori	r24, 0x20	; 32
  d0:	83 bf       	out	0x33, r24	; 51
	TCCR0 |= (1<<CS00);					// preskaler = 1
  d2:	83 b7       	in	r24, 0x33	; 51
  d4:	81 60       	ori	r24, 0x01	; 1
  d6:	83 bf       	out	0x33, r24	; 51
	OCR1A=255;							// wygaszenie diody w kanale PWM
  d8:	8f ef       	ldi	r24, 0xFF	; 255
  da:	90 e0       	ldi	r25, 0x00	; 0
  dc:	9b bd       	out	0x2b, r25	; 43
  de:	8a bd       	out	0x2a, r24	; 42
	DDRC |= (1<<PC0)|(1<<PC1)|(1<<PC2); // ustawienie pinów kana³ów programowych PWM jako WYJŒCIA
  e0:	84 b3       	in	r24, 0x14	; 20
  e2:	87 60       	ori	r24, 0x07	; 7
  e4:	84 bb       	out	0x14, r24	; 20
	PORTC |= (1<<PC0)|(1<<PC1)|(1<<PC2); // wy³¹czenie diod LED pod³¹czonych katodami do wyjœæ
  e6:	85 b3       	in	r24, 0x15	; 21
  e8:	87 60       	ori	r24, 0x07	; 7
  ea:	85 bb       	out	0x15, r24	; 21
	
	TCCR2 |= (1<<WGM21);	// tryb  CTC
  ec:	85 b5       	in	r24, 0x25	; 37
  ee:	88 60       	ori	r24, 0x08	; 8
  f0:	85 bd       	out	0x25, r24	; 37
	TCCR2 |= (1<<CS20);		// preskaler = 1
  f2:	85 b5       	in	r24, 0x25	; 37
  f4:	81 60       	ori	r24, 0x01	; 1
  f6:	85 bd       	out	0x25, r24	; 37
	OCR2 = 199;				// dodatkowy podzia³ czêsttotliwoœci przez 200
  f8:	87 ec       	ldi	r24, 0xC7	; 199
  fa:	83 bd       	out	0x23, r24	; 35
	TIMSK |= (1<<OCIE2);	// zezwolenie na przerwanie CompareMatch
  fc:	89 b7       	in	r24, 0x39	; 57
  fe:	80 68       	ori	r24, 0x80	; 128
 100:	89 bf       	out	0x39, r24	; 57
	sei();				// odblokowanie globalne przerwañ
 102:	78 94       	sei
	uint8_t i;			// definicja zmiennej i na potrzeby pêtli for()

 	pwmR=150;
 104:	86 e9       	ldi	r24, 0x96	; 150
 106:	80 93 62 00 	sts	0x0062, r24
	pwmG=200;
 10a:	88 ec       	ldi	r24, 0xC8	; 200
 10c:	80 93 63 00 	sts	0x0063, r24
	pwmB=250;
 110:	8a ef       	ldi	r24, 0xFA	; 250
 112:	80 93 61 00 	sts	0x0061, r24
	while( !(UCSRA & (1<<UDRE)) );
	UDR = buflen;
}
	
unsigned char USART_Receive( void ){
   while( !(UCSRA & (1<<RXC)) );
 116:	5f 9b       	sbis	0x0b, 7	; 11
 118:	fe cf       	rjmp	.-4      	; 0x116 <main+0x60>
   return UDR;
 11a:	8c b1       	in	r24, 0x0c	; 12
	UCSRB = (1<<RXEN)|(1<<TXEN);
	UCSRC = (1<<URSEL)|(3<<UCSZ0);
}

void USART_Transmit( char buflen) {
	while( !(UCSRA & (1<<UDRE)) );
 11c:	5d 9b       	sbis	0x0b, 5	; 11
 11e:	fe cf       	rjmp	.-4      	; 0x11c <main+0x66>
	UDR = buflen;
 120:	8c b9       	out	0x0c, r24	; 12
	pwmB=250;

	while(1){
		data = USART_Receive();
		USART_Transmit(data);
		if(data == '1' ) pwmR=pwmR+5;
 122:	81 33       	cpi	r24, 0x31	; 49
 124:	21 f4       	brne	.+8      	; 0x12e <main+0x78>
 126:	80 91 62 00 	lds	r24, 0x0062
 12a:	8b 5f       	subi	r24, 0xFB	; 251
 12c:	05 c0       	rjmp	.+10     	; 0x138 <main+0x82>
		if(data == '4' ) pwmR=pwmR-5;
 12e:	84 33       	cpi	r24, 0x34	; 52
 130:	31 f4       	brne	.+12     	; 0x13e <main+0x88>
 132:	80 91 62 00 	lds	r24, 0x0062
 136:	85 50       	subi	r24, 0x05	; 5
 138:	80 93 62 00 	sts	0x0062, r24
 13c:	ec cf       	rjmp	.-40     	; 0x116 <main+0x60>
		if(data == '2' ) pwmG=pwmG+5;
 13e:	82 33       	cpi	r24, 0x32	; 50
 140:	21 f4       	brne	.+8      	; 0x14a <main+0x94>
 142:	80 91 63 00 	lds	r24, 0x0063
 146:	8b 5f       	subi	r24, 0xFB	; 251
 148:	05 c0       	rjmp	.+10     	; 0x154 <main+0x9e>
		if(data == '5' ) pwmG=pwmG-5;
 14a:	85 33       	cpi	r24, 0x35	; 53
 14c:	31 f4       	brne	.+12     	; 0x15a <main+0xa4>
 14e:	80 91 63 00 	lds	r24, 0x0063
 152:	85 50       	subi	r24, 0x05	; 5
 154:	80 93 63 00 	sts	0x0063, r24
 158:	de cf       	rjmp	.-68     	; 0x116 <main+0x60>
		if(data == '3' ) pwmB=pwmB+5;
 15a:	83 33       	cpi	r24, 0x33	; 51
 15c:	21 f4       	brne	.+8      	; 0x166 <main+0xb0>
 15e:	80 91 61 00 	lds	r24, 0x0061
 162:	8b 5f       	subi	r24, 0xFB	; 251
 164:	d6 cf       	rjmp	.-84     	; 0x112 <main+0x5c>
		if(data == '6' ) pwmB=pwmB-5;
 166:	86 33       	cpi	r24, 0x36	; 54
 168:	b1 f6       	brne	.-84     	; 0x116 <main+0x60>
 16a:	80 91 61 00 	lds	r24, 0x0061
 16e:	85 50       	subi	r24, 0x05	; 5
 170:	d0 cf       	rjmp	.-96     	; 0x112 <main+0x5c>

00000172 <_exit>:
 172:	f8 94       	cli

00000174 <__stop_program>:
 174:	ff cf       	rjmp	.-2      	; 0x174 <__stop_program>
